; Function Attrs: nounwind uwtable
define hidden zeroext i1 @SDL_WriteU16BE_REAL(ptr noundef %0, i16 noundef zeroext %1) local_unnamed_addr #0 {
  %3 = alloca i16, align 2
  call void @llvm.lifetime.start.p0(i64 2, ptr nonnull %3) #18
  %4 = tail call i16 @llvm.bswap.i16(i16 %1)
  store i16 %4, ptr %3, align 2
  %.not.i = icmp eq ptr %0, null
  br i1 %.not.i, label %5, label %7

5:                                                ; preds = %2
  %6 = tail call zeroext i1 (ptr, ...) @SDL_SetError_REAL(ptr noundef nonnull @.str.2, ptr noundef nonnull @.str.11) #18
  br label %SDL_WriteIO_REAL.exit

7:                                                ; preds = %2
  %8 = getelementptr inbounds nuw i8, ptr %0, i64 32
  %9 = load ptr, ptr %8, align 8
  %.not16.i = icmp eq ptr %9, null
  %10 = getelementptr inbounds nuw i8, ptr %0, i64 64
  br i1 %.not16.i, label %11, label %13

11:                                               ; preds = %7
  store i32 4, ptr %10, align 8
  %12 = tail call zeroext i1 (ptr, ...) @SDL_SetError_REAL(ptr noundef nonnull @.str.18) #18
  br label %SDL_WriteIO_REAL.exit

13:                                               ; preds = %7
  store i32 0, ptr %10, align 8
  %14 = tail call zeroext i1 @SDL_ClearError_REAL() #18
  %15 = load ptr, ptr %8, align 8
  %16 = getelementptr inbounds nuw i8, ptr %0, i64 56
  %17 = load ptr, ptr %16, align 8
  %18 = call i64 %15(ptr noundef %17, ptr noundef nonnull %3, i64 noundef 2, ptr noundef nonnull %10) #18
  %19 = icmp eq i64 %18, 0
  br i1 %19, label %20, label %SDL_WriteIO_REAL.exit

20:                                               ; preds = %13
  %21 = load i32, ptr %10, align 8
  %22 = icmp eq i32 %21, 0
  br i1 %22, label %23, label %SDL_WriteIO_REAL.exit

23:                                               ; preds = %20
  store i32 1, ptr %10, align 8
  br label %SDL_WriteIO_REAL.exit

SDL_WriteIO_REAL.exit:                            ; preds = %5, %11, %13, %20, %23
  %.0.i = phi i64 [ 0, %11 ], [ 0, %5 ], [ 0, %23 ], [ 0, %20 ], [ %18, %13 ]
  %24 = icmp eq i64 %.0.i, 2
  call void @llvm.lifetime.end.p0(i64 2, ptr nonnull %3) #18
  ret i1 %24
}